Certificate:
    Data:
        Version: 3 (0x2)
        Serial Number: 2 (0x2)
        Signature Algorithm: md5WithRSAEncryption
        Issuer: C=BE, ST=Liege, L=Seraing, O=Inpres, OU=Dept. Informatique, CN=RORIVE Olivier/emailAddress=olivier.rorive@student.hepl.be
        Validity
            Not Before: Jan 12 17:55:35 2018 GMT
            Not After : Jan 12 17:55:35 2019 GMT
        Subject: C=BE, ST=Liege, O=Inpres, OU=Dept. Informatique (serveurs), CN=Jim Verwimp
        Subject Public Key Info:
            Public Key Algorithm: dsaEncryption
            DSA Public Key:
                pub: 
                    6f:e1:c3:75:a9:4d:f6:9c:3d:08:9a:b6:6c:2a:d0:
                    56:84:7e:67:c4:d1:b7:38:75:a6:3d:9e:ed:e6:db:
                    4f:b9:c7:c6:24:0e:9d:4c:be:72:de:59:85:67:d3:
                    f2:17:a6:aa:4b:0f:c3:7e:a8:82:2b:5d:7f:7f:e2:
                    c0:a9:40:66:42:ce:b6:77:2a:8a:bc:e8:7a:aa:5d:
                    56:73:5b:21:0d:a4:fb:f8:43:99:ad:9f:2d:79:cc:
                    d4:27:e1:e4:68:82:8d:b6:4a:46:fa:8f:89:48:53:
                    ec:9a:4d:c5:7d:51:6e:1e:c5:21:f1:85:a1:47:ba:
                    25:09:33:0b:76:02:68:d4
                P:   
                    00:fd:7f:53:81:1d:75:12:29:52:df:4a:9c:2e:ec:
                    e4:e7:f6:11:b7:52:3c:ef:44:00:c3:1e:3f:80:b6:
                    51:26:69:45:5d:40:22:51:fb:59:3d:8d:58:fa:bf:
                    c5:f5:ba:30:f6:cb:9b:55:6c:d7:81:3b:80:1d:34:
                    6f:f2:66:60:b7:6b:99:50:a5:a4:9f:9f:e8:04:7b:
                    10:22:c2:4f:bb:a9:d7:fe:b7:c6:1b:f8:3b:57:e7:
                    c6:a8:a6:15:0f:04:fb:83:f6:d3:c5:1e:c3:02:35:
                    54:13:5a:16:91:32:f6:75:f3:ae:2b:61:d7:2a:ef:
                    f2:22:03:19:9d:d1:48:01:c7
                Q:   
                    00:97:60:50:8f:15:23:0b:cc:b2:92:b9:82:a2:eb:
                    84:0b:f0:58:1c:f5
                G:   
                    00:f7:e1:a0:85:d6:9b:3d:de:cb:bc:ab:5c:36:b8:
                    57:b9:79:94:af:bb:fa:3a:ea:82:f9:57:4c:0b:3d:
                    07:82:67:51:59:57:8e:ba:d4:59:4f:e6:71:07:10:
                    81:80:b4:49:16:71:23:e8:4c:28:16:13:b7:cf:09:
                    32:8c:c8:a6:e1:3c:16:7a:8b:54:7c:8d:28:e0:a3:
                    ae:1e:2b:b3:a6:75:91:6e:a3:7f:0b:fa:21:35:62:
                    f1:fb:62:7a:01:24:3b:cc:a4:f1:be:a8:51:90:89:
                    a8:83:df:e1:5a:e5:9f:06:92:8b:66:5e:80:7b:55:
                    25:64:01:4c:3b:fe:cf:49:2a
        X509v3 extensions:
            X509v3 Basic Constraints: 
                CA:FALSE
            Netscape Comment: 
                OpenSSL Generated Certificate
            X509v3 Subject Key Identifier: 
                82:87:4B:C8:CA:5D:E3:37:9E:AA:7B:BE:FC:53:B5:8E:48:38:E0:69
            X509v3 Authority Key Identifier: 
                keyid:B8:17:B0:B3:DB:2B:B5:B9:BF:F2:0F:48:FA:1B:2D:0D:6C:0F:47:E7
                DirName:/C=BE/ST=Liege/L=Seraing/O=Inpres/OU=Dept. Informatique/CN=RORIVE Olivier/emailAddress=olivier.rorive@student.hepl.be
                serial:00

    Signature Algorithm: md5WithRSAEncryption
        ac:a1:3e:2d:3e:3b:3d:8f:38:2c:6a:d6:35:d3:fc:11:ed:4c:
        27:c8:e0:4b:f3:a4:ee:93:73:0d:6e:17:b1:20:28:8f:07:57:
        17:22:ba:b9:29:29:40:66:5b:eb:1f:71:4b:0d:2a:38:9c:f1:
        d6:cc:9f:a7:82:4c:e3:03:ca:cb:a7:28:a4:ad:79:a2:bd:10:
        64:8a:42:26:be:9a:92:56:b4:5c:d0:8d:74:53:d9:8c:b1:ea:
        9f:66:53:d1:0e:7f:42:02:eb:42:e1:d4:4c:b3:18:3e:e6:79:
        32:35:f6:79:7d:13:fc:34:0b:83:fa:d8:27:50:6a:f6:f7:82:
        6e:b4:5e:b7:f8:62:fc:62:29:2d:ec:c6:01:24:b1:3f:ca:e6:
        c2:75:d6:e1:e2:83:a5:f4:d2:68:90:82:e5:3e:0b:0f:71:4d:
        8e:64:72:e8:63:be:f8:dd:72:3e:48:f5:93:2f:1a:bf:dd:a1:
        a5:9d:31:6a:fa:c0:ce:5f:24:12:2e:78:78:0b:4c:ac:cf:b1:
        9d:20:ae:06:ad:ae:c6:c5:91:ce:41:12:5c:a0:19:3b:5c:80:
        4f:ad:74:32:6b:ce:1e:15:a7:ef:de:b3:16:a6:6a:1d:29:95:
        1d:e7:19:ab:e2:a3:9f:d5:15:78:41:67:c6:b9:b9:7a:01:ae:
        5c:a0:e6:b3:17:fd:70:8a:b4:53:c9:54:72:77:b7:09:33:1e:
        17:a9:53:f9:e4:6e:1f:00:82:25:5c:57:a7:71:e2:3e:0d:49:
        79:3f:6a:ee:28:4e:ef:f7:14:4b:0b:29:e8:03:cc:ee:95:0e:
        64:db:26:98:c1:b7:c3:b9:a3:45:98:c4:3e:06:af:5f:dc:0e:
        b9:a8:4b:8a:ac:e1:65:72:84:be:80:49:df:9c:a9:4d:bf:4d:
        43:e1:a5:49:3a:0b:3d:3d:30:a7:ab:b2:67:85:cf:4e:e6:d0:
        98:6c:fb:c3:67:b6:75:b8:8d:bf:c2:29:54:b6:a6:a1:ac:2b:
        00:ff:89:c6:da:ad:1c:9d:4c:d7:f5:2b:8a:b3:51:78:cc:98:
        1d:ea:10:1b:1e:36:76:dc:9f:96:2d:fd:91:5e:e0:47:f5:47:
        e1:f3:7c:0a:70:4f:68:ce:e4:fa:48:19:84:e4:65:e5:20:95:
        c2:57:c1:55:47:c8:f7:0d:b3:06:65:5d:e4:6e:1c:b0:47:bc:
        75:e3:d7:b1:6f:42:81:54:41:47:d0:c8:c3:b6:ef:70:2f:87:
        10:cf:b9:1d:30:e9:54:45:0a:a3:98:85:80:e3:37:db:a3:3d:
        f0:83:f6:b3:73:50:e5:4c:77:17:91:a6:ce:cc:0b:01:c9:de:
        c0:b9:67:76:52:1b:8e:71
-----BEGIN CERTIFICATE-----
MIIGVTCCBD2gAwIBAgIBAjANBgkqhkiG9w0BAQQFADCBpTELMAkGA1UEBhMCQkUx
DjAMBgNVBAgTBUxpZWdlMRAwDgYDVQQHEwdTZXJhaW5nMQ8wDQYDVQQKEwZJbnBy
ZXMxGzAZBgNVBAsTEkRlcHQuIEluZm9ybWF0aXF1ZTEXMBUGA1UEAxMOUk9SSVZF
IE9saXZpZXIxLTArBgkqhkiG9w0BCQEWHm9saXZpZXIucm9yaXZlQHN0dWRlbnQu
aGVwbC5iZTAeFw0xODAxMTIxNzU1MzVaFw0xOTAxMTIxNzU1MzVaMGwxCzAJBgNV
BAYTAkJFMQ4wDAYDVQQIEwVMaWVnZTEPMA0GA1UEChMGSW5wcmVzMSYwJAYDVQQL
Ex1EZXB0LiBJbmZvcm1hdGlxdWUgKHNlcnZldXJzKTEUMBIGA1UEAxMLSmltIFZl
cndpbXAwggG3MIIBLAYHKoZIzjgEATCCAR8CgYEA/X9TgR11EilS30qcLuzk5/YR
t1I870QAwx4/gLZRJmlFXUAiUftZPY1Y+r/F9bow9subVWzXgTuAHTRv8mZgt2uZ
UKWkn5/oBHsQIsJPu6nX/rfGG/g7V+fGqKYVDwT7g/bTxR7DAjVUE1oWkTL2dfOu
K2HXKu/yIgMZndFIAccCFQCXYFCPFSMLzLKSuYKi64QL8Fgc9QKBgQD34aCF1ps9
3su8q1w2uFe5eZSvu/o66oL5V0wLPQeCZ1FZV4661FlP5nEHEIGAtEkWcSPoTCgW
E7fPCTKMyKbhPBZ6i1R8jSjgo64eK7OmdZFuo38L+iE1YvH7YnoBJDvMpPG+qFGQ
iaiD3+Fa5Z8GkotmXoB7VSVkAUw7/s9JKgOBhAACgYBv4cN1qU32nD0ImrZsKtBW
hH5nxNG3OHWmPZ7t5ttPucfGJA6dTL5y3lmFZ9PyF6aqSw/DfqiCK11/f+LAqUBm
Qs62dyqKvOh6ql1Wc1shDaT7+EOZrZ8teczUJ+HkaIKNtkpG+o+JSFPsmk3FfVFu
HsUh8YWhR7olCTMLdgJo1KOCATEwggEtMAkGA1UdEwQCMAAwLAYJYIZIAYb4QgEN
BB8WHU9wZW5TU0wgR2VuZXJhdGVkIENlcnRpZmljYXRlMB0GA1UdDgQWBBSCh0vI
yl3jN56qe778U7WOSDjgaTCB0gYDVR0jBIHKMIHHgBS4F7Cz2yu1ub/yD0j6Gy0N
bA9H56GBq6SBqDCBpTELMAkGA1UEBhMCQkUxDjAMBgNVBAgTBUxpZWdlMRAwDgYD
VQQHEwdTZXJhaW5nMQ8wDQYDVQQKEwZJbnByZXMxGzAZBgNVBAsTEkRlcHQuIElu
Zm9ybWF0aXF1ZTEXMBUGA1UEAxMOUk9SSVZFIE9saXZpZXIxLTArBgkqhkiG9w0B
CQEWHm9saXZpZXIucm9yaXZlQHN0dWRlbnQuaGVwbC5iZYIBADANBgkqhkiG9w0B
AQQFAAOCAgEArKE+LT47PY84LGrWNdP8Ee1MJ8jgS/Ok7pNzDW4XsSAojwdXFyK6
uSkpQGZb6x9xSw0qOJzx1syfp4JM4wPKy6copK15or0QZIpCJr6akla0XNCNdFPZ
jLHqn2ZT0Q5/QgLrQuHUTLMYPuZ5MjX2eX0T/DQLg/rYJ1Bq9veCbrRet/hi/GIp
LezGASSxP8rmwnXW4eKDpfTSaJCC5T4LD3FNjmRy6GO++N1yPkj1ky8av92hpZ0x
avrAzl8kEi54eAtMrM+xnSCuBq2uxsWRzkESXKAZO1yAT610MmvOHhWn796zFqZq
HSmVHecZq+Kjn9UVeEFnxrm5egGuXKDmsxf9cIq0U8lUcne3CTMeF6lT+eRuHwCC
JVxXp3HiPg1JeT9q7ihO7/cUSwsp6APM7pUOZNsmmMG3w7mjRZjEPgavX9wOuahL
iqzhZXKEvoBJ35ypTb9NQ+GlSToLPT0wp6uyZ4XPTubQmGz7w2e2dbiNv8IpVLam
oawrAP+JxtqtHJ1M1/UrirNReMyYHeoQGx42dtyfli39kV7gR/VH4fN8CnBPaM7k
+kgZhORl5SCVwlfBVUfI9w2zBmVd5G4csEe8dePXsW9CgVRBR9DIw7bvcC+HEM+5
HTDpVEUKo5iFgOM326M98IP2s3NQ5Ux3F5GmzswLAcnewLlndlIbjnE=
-----END CERTIFICATE-----
