Certificate:
    Data:
        Version: 3 (0x2)
        Serial Number: 1 (0x1)
        Signature Algorithm: md5WithRSAEncryption
        Issuer: C=BE, ST=Liege, L=Seraing, O=Inpres, OU=Dept. Informatique, CN=RORIVE Olivier/emailAddress=olivier.rorive@student.hepl.be
        Validity
            Not Before: Jan 12 17:51:39 2018 GMT
            Not After : Jan 12 17:51:39 2019 GMT
        Subject: C=BE, ST=Liege, O=Inpres, OU=Dept. Informatique (clients), CN=Jim Verwimp
        Subject Public Key Info:
            Public Key Algorithm: dsaEncryption
            DSA Public Key:
                pub: 
                    57:c2:47:5d:2a:36:d1:67:fb:5d:ff:1e:81:f2:28:
                    4f:de:71:a2:09:f8:45:6b:73:3e:5a:39:9b:24:48:
                    fe:7c:4b:26:2e:00:5e:ab:23:c9:7b:82:bb:e1:dc:
                    ad:be:19:f5:b7:f2:0e:ee:27:55:dd:ac:c8:17:d1:
                    55:8d:ae:d5:8e:b6:c5:2b:5c:cc:d6:30:f7:37:db:
                    75:06:bb:4f:9b:c2:18:fa:51:be:32:89:34:f0:cb:
                    f8:55:6e:11:e1:5d:43:7a:67:b4:cf:0b:64:21:c3:
                    5a:ed:84:97:a8:8d:6d:d7:e4:f4:3a:d7:49:e7:61:
                    98:bd:f3:df:1f:aa:a2:bd
                P:   
                    00:fd:7f:53:81:1d:75:12:29:52:df:4a:9c:2e:ec:
                    e4:e7:f6:11:b7:52:3c:ef:44:00:c3:1e:3f:80:b6:
                    51:26:69:45:5d:40:22:51:fb:59:3d:8d:58:fa:bf:
                    c5:f5:ba:30:f6:cb:9b:55:6c:d7:81:3b:80:1d:34:
                    6f:f2:66:60:b7:6b:99:50:a5:a4:9f:9f:e8:04:7b:
                    10:22:c2:4f:bb:a9:d7:fe:b7:c6:1b:f8:3b:57:e7:
                    c6:a8:a6:15:0f:04:fb:83:f6:d3:c5:1e:c3:02:35:
                    54:13:5a:16:91:32:f6:75:f3:ae:2b:61:d7:2a:ef:
                    f2:22:03:19:9d:d1:48:01:c7
                Q:   
                    00:97:60:50:8f:15:23:0b:cc:b2:92:b9:82:a2:eb:
                    84:0b:f0:58:1c:f5
                G:   
                    00:f7:e1:a0:85:d6:9b:3d:de:cb:bc:ab:5c:36:b8:
                    57:b9:79:94:af:bb:fa:3a:ea:82:f9:57:4c:0b:3d:
                    07:82:67:51:59:57:8e:ba:d4:59:4f:e6:71:07:10:
                    81:80:b4:49:16:71:23:e8:4c:28:16:13:b7:cf:09:
                    32:8c:c8:a6:e1:3c:16:7a:8b:54:7c:8d:28:e0:a3:
                    ae:1e:2b:b3:a6:75:91:6e:a3:7f:0b:fa:21:35:62:
                    f1:fb:62:7a:01:24:3b:cc:a4:f1:be:a8:51:90:89:
                    a8:83:df:e1:5a:e5:9f:06:92:8b:66:5e:80:7b:55:
                    25:64:01:4c:3b:fe:cf:49:2a
        X509v3 extensions:
            X509v3 Basic Constraints: 
                CA:FALSE
            Netscape Comment: 
                OpenSSL Generated Certificate
            X509v3 Subject Key Identifier: 
                EC:B7:8C:1F:80:98:68:42:B3:31:7C:DE:26:42:A8:C1:33:EF:A4:E9
            X509v3 Authority Key Identifier: 
                keyid:B8:17:B0:B3:DB:2B:B5:B9:BF:F2:0F:48:FA:1B:2D:0D:6C:0F:47:E7
                DirName:/C=BE/ST=Liege/L=Seraing/O=Inpres/OU=Dept. Informatique/CN=RORIVE Olivier/emailAddress=olivier.rorive@student.hepl.be
                serial:00

    Signature Algorithm: md5WithRSAEncryption
        24:80:25:53:ed:62:b3:26:44:bb:3e:16:02:96:39:b4:4e:ba:
        62:69:5d:21:69:3a:23:08:6b:22:f7:43:92:34:13:d5:09:7d:
        c6:18:00:fa:70:52:54:1a:7c:57:6d:44:7e:be:e5:b5:16:4d:
        eb:6a:af:a1:2e:b6:96:77:d7:7f:b4:6f:3d:ba:ba:d7:b2:dd:
        5c:07:e7:f0:b9:c6:23:69:57:dc:c6:b4:af:d5:cb:ae:15:f6:
        f3:d5:47:15:38:74:db:9a:42:c5:53:2f:a1:cf:6c:2f:d6:a0:
        c9:11:4f:c0:95:7e:18:09:0f:a4:f2:92:a2:47:d1:17:04:58:
        bc:8c:28:10:3e:5e:fe:2c:e6:3b:38:70:15:8f:e3:97:1f:59:
        4f:46:d7:b1:be:01:df:02:68:3c:36:f7:78:52:bb:a5:8b:26:
        be:81:88:40:fa:ce:c8:e6:7c:df:01:a5:90:2f:1f:7a:a1:c7:
        2e:60:fd:93:b2:f6:f4:14:90:b2:1c:49:39:b3:c0:5b:95:c5:
        76:7c:b4:69:11:f0:86:ae:fd:3e:42:d2:f0:5f:65:e1:94:09:
        40:80:f6:9a:63:92:e1:33:a7:8b:90:db:11:56:70:4c:19:d5:
        58:6a:3f:f4:cf:51:70:d2:86:4f:06:1e:0d:d5:88:8b:e0:e9:
        5a:81:cc:2a:65:14:a3:d1:63:9e:a1:13:a5:29:0a:60:ee:b3:
        f5:11:15:ed:b1:a8:87:61:23:7a:02:fc:f6:3b:6e:2d:d6:80:
        22:67:ed:ff:6d:5a:9a:e4:ef:88:7c:c2:15:cf:fe:da:2b:2e:
        f9:b4:0d:33:03:a1:58:40:2b:31:33:03:ae:9e:c1:29:ab:8f:
        37:e8:c3:e2:3e:29:ca:14:00:1f:07:f4:46:e2:4d:c3:0e:e8:
        67:88:af:6e:21:a6:2d:71:6a:3d:25:1e:b5:f8:0b:38:7f:66:
        27:b8:79:20:f7:ae:58:49:2f:d9:6a:fa:f2:70:1c:c9:c4:cc:
        76:1f:7d:a5:40:de:2f:11:aa:5e:4c:24:ca:52:80:0f:a8:ef:
        d3:87:4a:2b:2e:bc:73:2c:be:89:8f:c8:de:42:67:7b:1b:13:
        df:e8:ac:3b:df:0d:a6:8d:3b:fa:00:1a:57:13:d7:cd:a7:51:
        79:43:c0:eb:e7:8c:e6:f3:3b:ee:de:c3:26:0b:5a:e5:d2:e7:
        cd:87:61:cc:fa:17:42:b8:14:21:75:dc:2c:ef:7b:45:1b:08:
        92:9d:a5:0b:b8:6f:c5:65:3c:d1:d3:30:a7:0c:46:90:96:6f:
        16:d1:c9:82:c7:b5:20:3d:4a:dd:cb:02:6b:fd:5e:08:56:8d:
        43:14:38:41:a9:1f:66:32
-----BEGIN CERTIFICATE-----
MIIGVDCCBDygAwIBAgIBATANBgkqhkiG9w0BAQQFADCBpTELMAkGA1UEBhMCQkUx
DjAMBgNVBAgTBUxpZWdlMRAwDgYDVQQHEwdTZXJhaW5nMQ8wDQYDVQQKEwZJbnBy
ZXMxGzAZBgNVBAsTEkRlcHQuIEluZm9ybWF0aXF1ZTEXMBUGA1UEAxMOUk9SSVZF
IE9saXZpZXIxLTArBgkqhkiG9w0BCQEWHm9saXZpZXIucm9yaXZlQHN0dWRlbnQu
aGVwbC5iZTAeFw0xODAxMTIxNzUxMzlaFw0xOTAxMTIxNzUxMzlaMGsxCzAJBgNV
BAYTAkJFMQ4wDAYDVQQIEwVMaWVnZTEPMA0GA1UEChMGSW5wcmVzMSUwIwYDVQQL
ExxEZXB0LiBJbmZvcm1hdGlxdWUgKGNsaWVudHMpMRQwEgYDVQQDEwtKaW0gVmVy
d2ltcDCCAbcwggEsBgcqhkjOOAQBMIIBHwKBgQD9f1OBHXUSKVLfSpwu7OTn9hG3
UjzvRADDHj+AtlEmaUVdQCJR+1k9jVj6v8X1ujD2y5tVbNeBO4AdNG/yZmC3a5lQ
paSfn+gEexAiwk+7qdf+t8Yb+DtX58aophUPBPuD9tPFHsMCNVQTWhaRMvZ1864r
Ydcq7/IiAxmd0UgBxwIVAJdgUI8VIwvMspK5gqLrhAvwWBz1AoGBAPfhoIXWmz3e
y7yrXDa4V7l5lK+7+jrqgvlXTAs9B4JnUVlXjrrUWU/mcQcQgYC0SRZxI+hMKBYT
t88JMozIpuE8FnqLVHyNKOCjrh4rs6Z1kW6jfwv6ITVi8ftiegEkO8yk8b6oUZCJ
qIPf4VrlnwaSi2ZegHtVJWQBTDv+z0kqA4GEAAKBgFfCR10qNtFn+13/HoHyKE/e
caIJ+EVrcz5aOZskSP58SyYuAF6rI8l7grvh3K2+GfW38g7uJ1XdrMgX0VWNrtWO
tsUrXMzWMPc323UGu0+bwhj6Ub4yiTTwy/hVbhHhXUN6Z7TPC2Qhw1rthJeojW3X
5PQ610nnYZi9898fqqK9o4IBMTCCAS0wCQYDVR0TBAIwADAsBglghkgBhvhCAQ0E
HxYdT3BlblNTTCBHZW5lcmF0ZWQgQ2VydGlmaWNhdGUwHQYDVR0OBBYEFOy3jB+A
mGhCszF83iZCqMEz76TpMIHSBgNVHSMEgcowgceAFLgXsLPbK7W5v/IPSPobLQ1s
D0fnoYGrpIGoMIGlMQswCQYDVQQGEwJCRTEOMAwGA1UECBMFTGllZ2UxEDAOBgNV
BAcTB1NlcmFpbmcxDzANBgNVBAoTBklucHJlczEbMBkGA1UECxMSRGVwdC4gSW5m
b3JtYXRpcXVlMRcwFQYDVQQDEw5ST1JJVkUgT2xpdmllcjEtMCsGCSqGSIb3DQEJ
ARYeb2xpdmllci5yb3JpdmVAc3R1ZGVudC5oZXBsLmJlggEAMA0GCSqGSIb3DQEB
BAUAA4ICAQAkgCVT7WKzJkS7PhYCljm0TrpiaV0haTojCGsi90OSNBPVCX3GGAD6
cFJUGnxXbUR+vuW1Fk3raq+hLraWd9d/tG89urrXst1cB+fwucYjaVfcxrSv1cuu
Ffbz1UcVOHTbmkLFUy+hz2wv1qDJEU/AlX4YCQ+k8pKiR9EXBFi8jCgQPl7+LOY7
OHAVj+OXH1lPRtexvgHfAmg8Nvd4Uruliya+gYhA+s7I5nzfAaWQLx96occuYP2T
svb0FJCyHEk5s8BblcV2fLRpEfCGrv0+QtLwX2XhlAlAgPaaY5LhM6eLkNsRVnBM
GdVYaj/0z1Fw0oZPBh4N1YiL4OlagcwqZRSj0WOeoROlKQpg7rP1ERXtsaiHYSN6
Avz2O24t1oAiZ+3/bVqa5O+IfMIVz/7aKy75tA0zA6FYQCsxMwOunsEpq4836MPi
PinKFAAfB/RG4k3DDuhniK9uIaYtcWo9JR61+As4f2YnuHkg965YSS/ZavrycBzJ
xMx2H32lQN4vEapeTCTKUoAPqO/Th0orLrxzLL6Jj8jeQmd7GxPf6Kw73w2mjTv6
ABpXE9fNp1F5Q8Dr54zm8zvu3sMmC1rl0ufNh2HM+hdCuBQhddws73tFGwiSnaUL
uG/FZTzR0zCnDEaQlm8W0cmCx7UgPUrdywJr/V4IVo1DFDhBqR9mMg==
-----END CERTIFICATE-----
